ccopy_reg
_reconstructor
p0
(cgoogle.oauth2.credentials
Credentials
p1
c__builtin__
object
p2
Ntp3
Rp4
(dp5
S'_token_uri'
p6
Vhttps://oauth2.googleapis.com/token
p7
sS'_scopes'
p8
(lp9
S'https://www.googleapis.com/auth/spreadsheets.readonly'
p10
asS'_id_token'
p11
NsS'token'
p12
Vya29.GluWBi3OiV-gBMZSOKV-burUdnfRm8nRcb2VwnxsxtDoWkoBUrtxVSKf7ZQJTIZGO0zW5ge3NucWiBk8TOigqjJB0wHz87vT4JXTdss8lj398tcaP2LgaX174Vlr
p13
sS'_refresh_token'
p14
V1/rrTN877ij4s56qdRdza2JPTs3NNIGhwO-TiU4sUPFGk
p15
sS'_client_secret'
p16
VASV_mVVFNkR225HHEbkmomEn
p17
sS'_client_id'
p18
V1082041065896-cih94r5otano2vvtj47ba6bgp49ncea4.apps.googleusercontent.com
p19
sS'expiry'
p20
cdatetime
datetime
p21
(S'\x07\xe3\x01\x13\x16\x1d\x1b\x01\x85\xf5'
p22
tp23
Rp24
sb.